; Function Attrs: nounwind uwtable
define hidden void @arena_prefork8(ptr noundef %tsdn, ptr noundef %arena) local_unnamed_addr #0 {
entry:
  %0 = load i32, ptr @nbins_total, align 4
  %cmp3.not = icmp eq i32 %0, 0
  br i1 %cmp3.not, label %for.end, label %for.body.lr.ph

for.body.lr.ph:                                   ; preds = %entry
  %bins = getelementptr inbounds i8, ptr %arena, i64 78952
  br label %for.body

for.body:                                         ; preds = %for.body.lr.ph, %for.body
  %indvars.iv = phi i64 [ 0, %for.body.lr.ph ], [ %indvars.iv.next, %for.body ]
  %arrayidx = getelementptr inbounds [0 x %struct.bin_s], ptr %bins, i64 0, i64 %indvars.iv
  tail call void @bin_prefork(ptr noundef %tsdn, ptr noundef nonnull %arrayidx) #15
  %indvars.iv.next = add nuw nsw i64 %indvars.iv, 1
  %1 = load i32, ptr @nbins_total, align 4
  %2 = zext i32 %1 to i64
  %cmp = icmp ult i64 %indvars.iv.next, %2
  br i1 %cmp, label %for.body, label %for.end, !llvm.loop !27

for.end:                                          ; preds = %for.body, %entry
  ret void
}